; Function Attrs: mustprogress nofree norecurse nosync nounwind willreturn memory(read, argmem: none, inaccessiblemem: none) uwtable
define range(i32 0, 2) i32 @CRYPTO_secure_allocated(ptr noundef readnone captures(address) %0) local_unnamed_addr #2 {
  %.b = load i1, ptr @secure_mem_initialized, align 4
  br i1 %.b, label %2, label %10

2:                                                ; preds = %1
  %3 = load ptr, ptr getelementptr inbounds nuw (i8, ptr @sh, i64 16), align 8, !tbaa !22
  %4 = icmp uge ptr %0, %3
  %5 = load i64, ptr getelementptr inbounds nuw (i8, ptr @sh, i64 24), align 8
  %6 = getelementptr inbounds nuw i8, ptr %3, i64 %5
  %7 = icmp ult ptr %0, %6
  %8 = select i1 %4, i1 %7, i1 false
  %9 = zext i1 %8 to i32
  br label %10

10:                                               ; preds = %1, %2
  %.0 = phi i32 [ %9, %2 ], [ 0, %1 ]
  ret i32 %.0
}